; Function Attrs: mustprogress uwtable
define noundef i32 @_ZN5arrow8internal15ErrnoFromStatusERKNS_6StatusE(ptr noundef nonnull align 8 dereferenceable(8) %0) local_unnamed_addr #3 personality ptr @__gxx_personality_v0 {
  %2 = alloca %"class.std::shared_ptr", align 8
  call void @llvm.lifetime.start.p0(i64 16, ptr nonnull %2) #38
  %3 = tail call noundef nonnull align 8 dereferenceable(16) ptr @_ZNK5arrow6Status6detailEv(ptr noundef nonnull align 8 dereferenceable(8) %0)
  %4 = load ptr, ptr %3, align 8, !tbaa !27
  store ptr %4, ptr %2, align 8, !tbaa !27
  %5 = getelementptr inbounds nuw i8, ptr %2, i64 8
  %6 = getelementptr inbounds nuw i8, ptr %3, i64 8
  %7 = load ptr, ptr %6, align 8, !tbaa !32
  store ptr %7, ptr %5, align 8, !tbaa !32
  %.not.i.i.i = icmp eq ptr %7, null
  br i1 %.not.i.i.i, label %_ZNSt10shared_ptrIN5arrow12StatusDetailEEC2ERKS2_.exit, label %8

8:                                                ; preds = %1
  %9 = getelementptr inbounds nuw i8, ptr %7, i64 8
  %10 = load i8, ptr @__libc_single_threaded, align 1, !tbaa !13
  %.not.i.i.i.i = icmp eq i8 %10, 0
  br i1 %.not.i.i.i.i, label %14, label %11

11:                                               ; preds = %8
  %12 = load i32, ptr %9, align 4, !tbaa !38
  %13 = add nsw i32 %12, 1
  store i32 %13, ptr %9, align 4, !tbaa !38
  br label %_ZNSt10shared_ptrIN5arrow12StatusDetailEEC2ERKS2_.exit

14:                                               ; preds = %8
  %15 = atomicrmw volatile add ptr %9, i32 1 acq_rel, align 4
  %.pre = load ptr, ptr %2, align 8, !tbaa !27
  br label %_ZNSt10shared_ptrIN5arrow12StatusDetailEEC2ERKS2_.exit

_ZNSt10shared_ptrIN5arrow12StatusDetailEEC2ERKS2_.exit: ; preds = %1, %11, %14
  %16 = phi ptr [ %4, %1 ], [ %4, %11 ], [ %.pre, %14 ]
  %.not = icmp eq ptr %16, null
  br i1 %.not, label %28, label %17

17:                                               ; preds = %_ZNSt10shared_ptrIN5arrow12StatusDetailEEC2ERKS2_.exit
  %18 = load ptr, ptr %16, align 8, !tbaa !22
  %19 = getelementptr inbounds nuw i8, ptr %18, i64 16
  %20 = load ptr, ptr %19, align 8
  %21 = invoke noundef ptr %20(ptr noundef nonnull align 8 dereferenceable(8) %16)
          to label %22 unwind label %26

22:                                               ; preds = %17
  %23 = icmp eq ptr %21, @_ZN5arrow8internal12_GLOBAL__N_118kErrnoDetailTypeIdE
  br i1 %23, label %24, label %28

24:                                               ; preds = %22
  %25 = getelementptr i8, ptr %16, i64 8
  %.val = load i32, ptr %25, align 8, !tbaa !24
  br label %28

26:                                               ; preds = %17
  %27 = landingpad { ptr, i32 }
          cleanup
  call void @_ZNSt12__shared_ptrIN5arrow12StatusDetailELN9__gnu_cxx12_Lock_policyE2EED2Ev(ptr noundef nonnull align 8 dereferenceable(16) %2) #38
  call void @llvm.lifetime.end.p0(i64 16, ptr nonnull %2) #38
  resume { ptr, i32 } %27

28:                                               ; preds = %_ZNSt10shared_ptrIN5arrow12StatusDetailEEC2ERKS2_.exit, %22, %24
  %.0 = phi i32 [ %.val, %24 ], [ 0, %22 ], [ 0, %_ZNSt10shared_ptrIN5arrow12StatusDetailEEC2ERKS2_.exit ]
  %29 = load ptr, ptr %5, align 8, !tbaa !32
  %.not.i.i = icmp eq ptr %29, null
  br i1 %.not.i.i, label %_ZNSt12__shared_ptrIN5arrow12StatusDetailELN9__gnu_cxx12_Lock_policyE2EED2Ev.exit, label %30

30:                                               ; preds = %28
  %31 = getelementptr inbounds nuw i8, ptr %29, i64 8
  %32 = load atomic i64, ptr %31 acquire, align 8
  %33 = icmp eq i64 %32, 4294967297
  %34 = trunc i64 %32 to i32
  br i1 %33, label %35, label %43

35:                                               ; preds = %30
  store i32 0, ptr %31, align 8, !tbaa !18
  %36 = getelementptr inbounds nuw i8, ptr %29, i64 12
  store i32 0, ptr %36, align 4, !tbaa !21
  %37 = load ptr, ptr %29, align 8, !tbaa !22
  %38 = getelementptr inbounds nuw i8, ptr %37, i64 16
  %39 = load ptr, ptr %38, align 8
  tail call void %39(ptr noundef nonnull align 8 dereferenceable(16) %29) #38
  %40 = load ptr, ptr %29, align 8, !tbaa !22
  %41 = getelementptr inbounds nuw i8, ptr %40, i64 24
  %42 = load ptr, ptr %41, align 8
  tail call void %42(ptr noundef nonnull align 8 dereferenceable(16) %29) #38
  br label %_ZNSt12__shared_ptrIN5arrow12StatusDetailELN9__gnu_cxx12_Lock_policyE2EED2Ev.exit

43:                                               ; preds = %30
  %44 = load i8, ptr @__libc_single_threaded, align 1, !tbaa !13
  %.not.i.i.i3 = icmp eq i8 %44, 0
  br i1 %.not.i.i.i3, label %47, label %45

45:                                               ; preds = %43
  %46 = add nsw i32 %34, -1
  store i32 %46, ptr %31, align 4, !tbaa !38
  br label %_ZN9__gnu_cxx27__exchange_and_add_dispatchEPii.exit.i.i.i

47:                                               ; preds = %43
  %48 = atomicrmw volatile add ptr %31, i32 -1 acq_rel, align 4
  br label %_ZN9__gnu_cxx27__exchange_and_add_dispatchEPii.exit.i.i.i

_ZN9__gnu_cxx27__exchange_and_add_dispatchEPii.exit.i.i.i: ; preds = %47, %45
  %.0.i.i.i.i = phi i32 [ %34, %45 ], [ %48, %47 ]
  %49 = icmp eq i32 %.0.i.i.i.i, 1
  br i1 %49, label %50, label %_ZNSt12__shared_ptrIN5arrow12StatusDetailELN9__gnu_cxx12_Lock_policyE2EED2Ev.exit, !prof !39

50:                                               ; preds = %_ZN9__gnu_cxx27__exchange_and_add_dispatchEPii.exit.i.i.i
  tail call void @_ZNSt16_Sp_counted_baseILN9__gnu_cxx12_Lock_policyE2EE24_M_release_last_use_coldEv(ptr noundef nonnull align 8 dereferenceable(16) %29) #38
  br label %_ZNSt12__shared_ptrIN5arrow12StatusDetailELN9__gnu_cxx12_Lock_policyE2EED2Ev.exit

_ZNSt12__shared_ptrIN5arrow12StatusDetailELN9__gnu_cxx12_Lock_policyE2EED2Ev.exit: ; preds = %28, %35, %_ZN9__gnu_cxx27__exchange_and_add_dispatchEPii.exit.i.i.i, %50
  call void @llvm.lifetime.end.p0(i64 16, ptr nonnull %2) #38
  ret i32 %.0
}